; ModuleID = 'source-C-CXX/35/588.c'
source_filename = "source-C-CXX/35/588.c"
target datalayout = "e-m:e-p270:32:32-p271:32:32-p272:64:64-i64:64-f80:128-n8:16:32:64-S128"
target triple = "x86_64-pc-linux-gnu"

@.str = private unnamed_addr constant [5 x i8] c"%s%s\00", align 1
@str = private unnamed_addr constant [4 x i8] c"YES\00", align 1
@str.4 = private unnamed_addr constant [3 x i8] c"NO\00", align 1

; Function Attrs: nofree nounwind sspstrong uwtable
define dso_local void @main() local_unnamed_addr #0 {
  %1 = alloca [100 x i8], align 16
  %2 = alloca [100 x i8], align 16
  %3 = getelementptr inbounds [100 x i8], [100 x i8]* %1, i64 0, i64 0
  call void @llvm.lifetime.start.p0i8(i64 100, i8* nonnull %3) #5
  %4 = getelementptr inbounds [100 x i8], [100 x i8]* %2, i64 0, i64 0
  call void @llvm.lifetime.start.p0i8(i64 100, i8* nonnull %4) #5
  %5 = call i32 (i8*, ...) @__isoc99_scanf(i8* getelementptr inbounds ([5 x i8], [5 x i8]* @.str, i64 0, i64 0), i8* nonnull %3, i8* nonnull %4)
  %6 = call i64 @strlen(i8* noundef nonnull %3) #6
  %7 = call i64 @strlen(i8* noundef nonnull %4) #6
  %8 = icmp eq i64 %6, %7
  br i1 %8, label %9, label %14

9:                                                ; preds = %0
  %10 = trunc i64 %6 to i32
  %11 = icmp sgt i32 %10, 0
  br i1 %11, label %12, label %49

12:                                               ; preds = %9
  %13 = and i64 %6, 4294967295
  br label %18

14:                                               ; preds = %0
  %15 = call i32 @puts(i8* nonnull dereferenceable(1) getelementptr inbounds ([3 x i8], [3 x i8]* @str.4, i64 0, i64 0))
  br label %51

16:                                               ; preds = %41
  %17 = icmp eq i64 %46, %13
  br i1 %17, label %49, label %18, !llvm.loop !5

18:                                               ; preds = %12, %16
  %19 = phi i64 [ 0, %12 ], [ %46, %16 ]
  %20 = call i64 @strlen(i8* noundef nonnull %4) #6
  %21 = trunc i64 %20 to i32
  %22 = icmp sgt i32 %21, 0
  br i1 %22, label %23, label %41

23:                                               ; preds = %18
  %24 = getelementptr inbounds [100 x i8], [100 x i8]* %1, i64 0, i64 %19
  %25 = load i8, i8* %24, align 1, !tbaa !7
  %26 = and i64 %20, 4294967295
  br label %27

27:                                               ; preds = %23, %36
  %28 = phi i64 [ 0, %23 ], [ %37, %36 ]
  %29 = getelementptr inbounds [100 x i8], [100 x i8]* %2, i64 0, i64 %28
  %30 = load i8, i8* %29, align 1, !tbaa !7
  %31 = icmp eq i8 %25, %30
  br i1 %31, label %32, label %36

32:                                               ; preds = %27
  %33 = trunc i64 %28 to i32
  %34 = and i64 %28, 4294967295
  %35 = getelementptr inbounds [100 x i8], [100 x i8]* %2, i64 0, i64 %34
  store i8 -1, i8* %35, align 1, !tbaa !7
  br label %41

36:                                               ; preds = %27
  %37 = add nuw nsw i64 %28, 1
  %38 = icmp eq i64 %37, %26
  br i1 %38, label %39, label %27, !llvm.loop !10

39:                                               ; preds = %36
  %40 = trunc i64 %20 to i32
  br label %41

41:                                               ; preds = %39, %18, %32
  %42 = phi i32 [ %33, %32 ], [ 0, %18 ], [ %40, %39 ]
  %43 = call i64 @strlen(i8* noundef nonnull %4) #6
  %44 = trunc i64 %43 to i32
  %45 = icmp slt i32 %42, %44
  %46 = add nuw nsw i64 %19, 1
  br i1 %45, label %16, label %47

47:                                               ; preds = %41
  %48 = call i32 (i8*, ...) @printf(i8* nonnull dereferenceable(1) getelementptr inbounds ([3 x i8], [3 x i8]* @str.4, i64 0, i64 0))
  br label %51

49:                                               ; preds = %16, %9
  %50 = call i32 @puts(i8* nonnull dereferenceable(1) getelementptr inbounds ([4 x i8], [4 x i8]* @str, i64 0, i64 0))
  br label %51

51:                                               ; preds = %49, %47, %14
  call void @llvm.lifetime.end.p0i8(i64 100, i8* nonnull %4) #5
  call void @llvm.lifetime.end.p0i8(i64 100, i8* nonnull %3) #5
  ret void
}

; Function Attrs: argmemonly mustprogress nofree nosync nounwind willreturn
declare void @llvm.lifetime.start.p0i8(i64 immarg, i8* nocapture) #1

; Function Attrs: nofree nounwind
declare noundef i32 @__isoc99_scanf(i8* nocapture noundef readonly, ...) local_unnamed_addr #2

; Function Attrs: argmemonly mustprogress nofree nounwind readonly willreturn
declare i64 @strlen(i8* nocapture) local_unnamed_addr #3

; Function Attrs: nofree nounwind
declare noundef i32 @printf(i8* nocapture noundef readonly, ...) local_unnamed_addr #2

; Function Attrs: argmemonly mustprogress nofree nosync nounwind willreturn
declare void @llvm.lifetime.end.p0i8(i64 immarg, i8* nocapture) #1

; Function Attrs: nofree nounwind
declare noundef i32 @puts(i8* nocapture noundef readonly) local_unnamed_addr #4


!llvm.module.flags = !{!0, !1, !2, !3}
!llvm.ident = !{!4}

!0 = !{i32 1, !"wchar_size", i32 4}
!1 = !{i32 7, !"PIC Level", i32 2}
!2 = !{i32 7, !"PIE Level", i32 2}
!3 = !{i32 7, !"uwtable", i32 1}
!4 = !{!"clang version 13.0.0"}
!5 = distinct !{!5, !6}
!6 = !{!"llvm.loop.mustprogress"}
!7 = !{!8, !8, i64 0}
!8 = !{!"omnipotent char", !9, i64 0}
!9 = !{!"Simple C/C++ TBAA"}
!10 = distinct !{!10, !6}
